; Function Attrs: mustprogress uwtable
define hidden void @_ZN1q6ematch17add_instantiationERNS_6clauseERNS_7bindingEN3sat7literalE(ptr noundef nonnull align 8 dereferenceable(2680) %0, ptr noundef nonnull align 8 dereferenceable(56) %1, ptr noundef nonnull align 8 dereferenceable(48) %2, i32 %3) local_unnamed_addr #3 align 2 {
  %5 = alloca [2 x %"class.sat::literal"], align 4
  %6 = getelementptr inbounds nuw i8, ptr %0, i64 2584
  %7 = load ptr, ptr %6, align 8, !tbaa !597
  %.not.i = icmp eq ptr %7, null
  br i1 %.not.i, label %_ZN6vectorISt4pairIPN3euf5enodeES3_ELb0EjE5resetEv.exit, label %8

8:                                                ; preds = %4
  %9 = getelementptr inbounds i8, ptr %7, i64 -4
  store i32 0, ptr %9, align 4, !tbaa !586
  br label %_ZN6vectorISt4pairIPN3euf5enodeES3_ELb0EjE5resetEv.exit

_ZN6vectorISt4pairIPN3euf5enodeES3_ELb0EjE5resetEv.exit: ; preds = %4, %8
  %10 = load ptr, ptr %0, align 8, !tbaa !615
  %11 = getelementptr inbounds nuw i8, ptr %2, i64 32
  %12 = load i32, ptr %11, align 8, !tbaa !687
  %13 = getelementptr inbounds nuw i8, ptr %2, i64 48
  %14 = tail call noundef i64 @_ZN1q6ematch16mk_justificationEjjRNS_6clauseEPKPN3euf5enodeE(ptr noundef nonnull align 8 dereferenceable(2680) %0, i32 noundef -1, i32 noundef %12, ptr noundef nonnull align 8 dereferenceable(56) %1, ptr noundef nonnull %13)
  tail call void @_ZN3euf6solver9propagateEN3sat7literalEm(ptr noundef nonnull align 8 dereferenceable(8456) %10, i32 %3, i64 noundef %14)
  %15 = getelementptr inbounds nuw i8, ptr %0, i64 8
  %16 = load ptr, ptr %15, align 8, !tbaa !616
  %17 = getelementptr inbounds nuw i8, ptr %1, i64 36
  %.sroa.01.0.copyload = load i32, ptr %17, align 4, !tbaa !586
  %18 = xor i32 %.sroa.01.0.copyload, 1
  call void @llvm.lifetime.start.p0(i64 8, ptr nonnull %5) #21
  store i32 %18, ptr %5, align 4, !tbaa !586
  %19 = getelementptr inbounds nuw i8, ptr %5, i64 4
  store i32 %3, ptr %19, align 4, !tbaa !586
  call void @_ZN1q6solver17log_instantiationEjPKN3sat7literalEPNS_13justificationE(ptr noundef nonnull align 8 dereferenceable(3160) %16, i32 noundef 2, ptr noundef nonnull %5, ptr noundef null)
  call void @llvm.lifetime.end.p0(i64 8, ptr nonnull %5) #21
  ret void
}